(dp1
S'3H7H'
p2
(dp3
S'P63272'
p4
I1
sS'O00267'
p5
I1
ssS'1UEA'
p6
(dp7
S'P01033'
p8
I1
sS'P08254'
p9
I1
ssS'1RLB'
p10
(dp11
S'P02766'
p12
I4
sS'P02753'
p13
I2
ssS'3RNM'
p14
(dp15
S'P09622'
p16
I2
sS'P11182'
p17
I1
ssS'3S97'
p18
(dp19
S'Q12860'
p20
I1
sS'P23471'
p21
I1
ssS'1GHQ'
p22
(dp23
S'P20023'
p24
I2
sS'P01024'
p25
I1
ssS'3TSO'
p26
(dp27
S'P57735'
p28
I2
sS'Q7L804'
p29
I2
ssS'1UEL'
p30
(dp31
S'P54727'
p32
I1
sS'P55036'
p33
I1
ssS'1H3O'
p34
(dp35
S'Q16514'
p36
I1
sS'O00268'
p37
I1
ssS'2CKH'
p38
(dp39
S'Q9P0U3'
p40
I1
sS'P61956'
p41
I1
ssS'1BI8'
p42
(dp43
S'Q00534'
p44
I2
sS'P55273'
p45
I2
ssS'2CG5'
p46
(dp47
S'Q9NRN7'
p48
I1
sS'P49327'
p49
I1
ssS'1WQJ'
p50
(dp51
S'P22692'
p52
I1
sS'P05019'
p53
I1
ssS'2WAX'
p54
(dp55
S'Q96F86'
p56
I1
sS'P26196'
p57
I1
ssS'3ISM'
p58
(dp59
S'Q9V3V9'
p60
I1
sS'Q7JXB9'
p61
I2
ssS'3AU4'
p62
(dp63
S'P43146'
p64
I1
sS'Q9HD67'
p65
I1
ssS'3U7U'
p66
(dp67
S'Q02297'
p68
I1
sS'Q15303'
p69
I1
ssS'3RIU'
p70
(dp71
S'Q8INE1'
p72
I2
sS'Q7JVK6'
p73
I4
ssS'3TW8'
p74
(dp75
S'Q15286'
p76
I1
sS'Q6P3S1'
p77
I1
ssS'1UL1'
p78
(dp79
S'P12004'
p80
I3
sS'P39748'
p81
I3
ssS'3AGY'
p82
(dp83
S'P25685'
p84
I2
sS'P11142'
p85
I3
ssS'3AGZ'
p86
(dp87
S'P25685'
p88
I2
sS'P11142'
p89
I4
ssS'2KW3'
p90
(dp91
S'P48382'
p92
I2
sS'O00287'
p93
I1
ssS'2L1L'
p94
(dp95
S'P61925'
p96
I1
sS'O14980'
p97
I1
ssS'2W84'
p98
(dp99
S'P50542'
p100
I1
sS'O75381'
p101
I1
ssS'2D7C'
p102
(dp103
S'P62491'
p104
I1
sS'O75154'
p105
I1
ssS'2W83'
p106
(dp107
S'P62330'
p108
I3
sS'O60271'
p109
I2
ssS'2WJV'
p110
(dp111
S'Q92900'
p112
I1
sS'Q9HAU5'
p113
I1
ssS'2KWI'
p114
(dp115
S'Q15311'
p116
I1
sS'P11234'
p117
I1
ssS'2KWK'
p118
(dp119
S'P68431'
p120
I1
sS'Q92784'
p121
I1
ssS'1C4Z'
p122
(dp123
S'P68036'
p124
I1
sS'Q05086'
p125
I3
ssS'2RQH'
p126
(dp127
S'Q8R050'
p128
I1
sS'P11940'
p129
I1
ssS'3E2U'
p130
(dp131
S'Q14203'
p132
I1
sS'P30622'
p133
I1
ssS'4A1S'
p134
(dp135
S'Q9VB22'
p136
I1
sS'Q9W2R4'
p137
I1
ssS'3PUF'
p138
(dp139
S'Q5TBB1'
p140
I1
sS'Q8TDP1'
p141
I1
sS'O75792'
p142
I1
ssS'3N9Y'
p143
(dp144
S'P05108'
p145
I1
sS'P10109'
p146
I1
ssS'3H8K'
p147
(dp148
S'P60604'
p149
I1
sS'Q9UKV5'
p150
I1
ssS'4BKX'
p151
(dp152
S'Q13330'
p153
I2
sS'Q13547'
p154
I2
ssS'4BKF'
p155
(dp156
S'Q15768'
p157
I2
sS'P54764'
p158
I2
ssS'4GAF'
p159
(dp160
S'P01584'
p161
I1
sS'P14778'
p162
I1
ssS'3RWR'
p163
(dp164
S'Q13426'
p165
I4
sS'Q9H9Q4'
p166
I4
ssS'3S9D'
p167
(dp168
S'P01563'
p169
I1
sS'P48551'
p170
I1
ssS'4AT7'
p171
(dp172
S'Q9CXY6'
p173
I1
sS'Q9Z1X4'
p174
I1
ssS'4C9B'
p175
(dp176
S'P38919'
p177
I1
sS'Q9HCG8'
p178
I1
ssS'1YCS'
p179
(dp180
S'Q13625'
p181
I1
sS'P04637'
p182
I1
ssS'1IVO'
p183
(dp184
S'P00533'
p185
I2
sS'P01133'
p186
I2
ssS'1UPT'
p187
(dp188
S'Q13439'
p189
I2
sS'P40616'
p190
I2
ssS'2K9U'
p191
(dp192
S'Q14315'
p193
I1
sS'Q8WUP2'
p194
I1
ssS'3OL2'
p195
(dp196
S'Q92854'
p197
I2
sS'O43157'
p198
I2
ssS'3F5X'
p199
(dp200
S'P20248'
p201
I4
sS'P24941'
p202
I4
ssS'2RD7'
p203
(dp204
S'P07360'
p205
I1
sS'P07357'
p206
I1
ssS'1LQV'
p207
(dp208
S'P04070'
p209
I1
sS'Q9UNN8'
p210
I1
ssS'4N3B'
p211
(dp212
S'P51610'
p213
I1
sS'O15294'
p214
I1
ssS'3EAB'
p215
(dp216
S'Q7LBR1'
p217
I1
sS'Q9UBP0'
p218
I1
ssS'3GUT'
p219
(dp220
S'Q04206'
p221
I2
sS'P19838'
p222
I2
ssS'1S4Z'
p223
(dp224
S'P83917'
p225
I2
sS'Q9QWF0'
p226
I1
ssS'2LKM'
p227
(dp228
S'Q9UBU8'
p229
I1
sS'Q96QT6'
p230
I1
ssS'1L1O'
p231
(dp232
S'P35244'
p233
I2
sS'P15927'
p234
I2
sS'P27694'
p235
I2
ssS'4FXW'
p236
(dp237
S'Q15637'
p238
I1
sS'P26368'
p239
I1
ssS'4I21'
p240
(dp241
S'P00533'
p242
I1
sS'Q9UJM3'
p243
I1
ssS'2C5L'
p244
(dp245
S'P01112'
p246
I1
sS'Q9P212'
p247
I1
ssS'3ZPV'
p248
(dp249
S'Q961D9'
p250
I1
sS'Q9V9W8'
p251
I1
ssS'1EFV'
p252
(dp253
S'P13804'
p254
I1
sS'P38117'
p255
I1
ssS'1YC0'
p256
(dp257
S'O43278'
p258
I1
sS'Q04756'
p259
I1
ssS'4FAO'
p260
(dp261
S'Q9UK05'
p262
I2
sS'Q13705'
p263
I2
sS'P37023'
p264
I2
ssS'2L0Y'
p265
(dp266
S'Q8N4Q1'
p267
I1
sS'Q14061'
p268
I1
ssS'3L51'
p269
(dp270
S'Q8CG48'
p271
I1
sS'Q8CG47'
p272
I1
ssS'3HEI'
p273
(dp274
S'P29317'
p275
I1
sS'P20827'
p276
I1
ssS'3MBW'
p277
(dp278
S'P29317'
p279
I2
sS'P20827'
p280
I2
ssS'2R17'
p281
(dp282
S'Q9UBQ0'
p283
I1
sS'Q96QK1'
p284
I1
ssS'2LYD'
p285
(dp286
S'Q9W1H5'
p287
I1
sS'E1JJR3'
p288
I1
ssS'4DHI'
p289
(dp290
S'Q9XVR6'
p291
I1
sS'P61088'
p292
I1
ssS'2Z3Q'
p293
(dp294
S'P40933'
p295
I1
sS'Q13261'
p296
I1
ssS'3K1R'
p297
(dp298
S'Q9Y6N9'
p299
I1
sS'Q495M9'
p300
I1
ssS'2IW5'
p301
(dp302
S'Q9UKL0'
p303
I1
sS'O60341'
p304
I1
ssS'4DHX'
p305
(dp306
S'Q9NPA8'
p307
I2
sS'O60318'
p308
I1
ssS'1C1Y'
p309
(dp310
S'P62834'
p311
I1
sS'P04049'
p312
I1
ssS'3CU1'
p313
(dp314
S'P21802'
p315
I2
sS'P05230'
p316
I2
ssS'2PI2'
p317
(dp318
S'P15927'
p319
I1
sS'P35244'
p320
I1
ssS'1QA9'
p321
(dp322
S'P06729'
p323
I1
sS'P19256'
p324
I1
ssS'4EXT'
p325
(dp326
S'Q9UI95'
p327
I1
sS'O60673'
p328
I1
sS'Q9UBZ9'
p329
I1
ssS'3Q2T'
p330
(dp331
S'Q16630'
p332
I2
sS'O43809'
p333
I2
ssS'3TAD'
p334
(dp335
S'Q8C8U0'
p336
I1
sS'O75334'
p337
I1
ssS'3TAC'
p338
(dp339
S'O14936'
p340
I1
sS'O75334'
p341
I1
ssS'2KS1'
p342
(dp343
S'P00533'
p344
I1
sS'P04626'
p345
I1
ssS'2FMM'
p346
(dp347
S'Q7Z589'
p348
I2
sS'P83916'
p349
I8
ssS'2QAG'
p350
(dp351
S'Q15019'
p352
I2
sS'Q14141'
p353
I2
sS'Q16181'
p354
I2
ssS'4DOS'
p355
(dp356
S'O00482'
p357
I1
sS'Q15596'
p358
I2
ssS'3CUQ'
p359
(dp360
S'Q9BRG1'
p361
I2
sS'Q96H20'
p362
I1
sS'Q86VN1'
p363
I1
ssS'2KSO'
p364
(dp365
S'P29317'
p366
I1
sS'O15357'
p367
I1
ssS'1YHN'
p368
(dp369
S'P51149'
p370
I2
sS'Q96NA2'
p371
I2
ssS'3KYC'
p372
(dp373
S'Q9UBE0'
p374
I1
sS'Q9UBT2'
p375
I1
sS'P63165'
p376
I1
ssS'3SL9'
p377
(dp378
S'P35222'
p379
I1
sS'O00512'
p380
I1
ssS'1Z0K'
p381
(dp382
S'Q9H1K0'
p383
I1
sS'P20338'
p384
I1
ssS'1WMH'
p385
(dp386
S'P41743'
p387
I1
sS'Q9NPB6'
p388
I1
ssS'4A49'
p389
(dp390
S'P62837'
p391
I1
sS'P22681'
p392
I1
ssS'1JH4'
p393
(dp394
S'Q9H074'
p395
I1
sS'P11940'
p396
I1
ssS'4DOH'
p397
(dp398
S'Q9NYY1'
p399
I1
sS'Q6UXL0'
p400
I1
sS'Q9UHF4'
p401
I1
ssS'3KYS'
p402
(dp403
S'P46937'
p404
I1
sS'P28347'
p405
I1
ssS'1ZSG'
p406
(dp407
S'Q13153'
p408
I1
sS'Q14155'
p409
I1
ssS'3NBN'
p410
(dp411
S'P46531'
p412
I2
sS'Q92585'
p413
I2
sS'Q06330'
p414
I2
ssS'4AP2'
p415
(dp416
S'Q13618'
p417
I1
sS'Q9NVR0'
p418
I1
ssS'1D3B'
p419
(dp420
S'P14678'
p421
I1
sS'P62318'
p422
I1
ssS'3NHE'
p423
(dp424
S'P62987'
p425
I1
sS'O75604'
p426
I1
ssS'1H2K'
p427
(dp428
S'Q9NWT6'
p429
I2
sS'Q16665'
p430
I2
ssS'1GCQ'
p431
(dp432
S'P62993'
p433
I2
sS'P27870'
p434
I1
ssS'4JOI'
p435
(dp436
S'Q9H668'
p437
I1
sS'Q86WV5'
p438
I1
ssS'2GWF'
p439
(dp440
S'P40818'
p441
I1
sS'Q9H4P4'
p442
I1
ssS'3TJ3'
p443
(dp444
S'P52294'
p445
I1
sS'Q9UKX7'
p446
I1
ssS'2LY4'
p447
(dp448
S'P09429'
p449
I1
sS'P04637'
p450
I1
ssS'1H2V'
p451
(dp452
S'Q09161'
p453
I1
sS'P52298'
p454
I1
ssS'3EZQ'
p455
(dp456
S'P25445'
p457
I2
sS'Q13158'
p458
I2
ssS'2W2X'
p459
(dp460
S'P15153'
p461
I1
sS'P16885'
p462
I1
ssS'2PRG'
p463
(dp464
S'Q15788'
p465
I1
sS'P37231'
p466
I2
ssS'1S1C'
p467
(dp468
S'P61586'
p469
I2
sS'Q13464'
p470
I2
ssS'4MS3'
p471
(dp472
S'O75899'
p473
I1
sS'Q9UBS5'
p474
I1
ssS'2KXH'
p475
(dp476
S'Q96AE4'
p477
I1
sS'Q9UHX1'
p478
I1
ssS'4KNG'
p479
(dp480
S'O75473'
p481
I2
sS'Q68DV7'
p482
I2
sS'Q2MKA7'
p483
I2
ssS'1DS6'
p484
(dp485
S'P52566'
p486
I1
sS'P15153'
p487
I1
ssS'2L5G'
p488
(dp489
S'Q9Y618'
p490
I1
sS'Q13227'
p491
I1
ssS'3L1Z'
p492
(dp493
S'O95155'
p494
I1
sS'P61077'
p495
I1
ssS'1TU3'
p496
(dp497
S'Q15276'
p498
I2
sS'P20339'
p499
I2
ssS'2KXQ'
p500
(dp501
S'O15105'
p502
I1
sS'Q9HAU4'
p503
I1
ssS'3NW0'
p504
(dp505
S'Q96MG7'
p506
I1
sS'Q8WV22'
p507
I1
ssS'4K0V'
p508
(dp509
S'Q02763'
p510
I1
sS'Q15389'
p511
I1
ssS'2DT7'
p512
(dp513
S'Q15459'
p514
I1
sS'Q12874'
p515
I1
ssS'1DSZ'
p516
(dp517
S'P10276'
p518
I1
sS'P19793'
p519
I1
ssS'3DPL'
p520
(dp521
S'Q93034'
p522
I1
sS'P62877'
p523
I1
ssS'2QXV'
p524
(dp525
S'Q61188'
p526
I1
sS'Q921E6'
p527
I1
ssS'2F8X'
p528
(dp529
S'P46531'
p530
I1
sS'Q92585'
p531
I1
sS'Q06330'
p532
I1
ssS'4F02'
p533
(dp534
S'Q04637'
p535
I1
sS'P11940'
p536
I1
ssS'2KRI'
p537
(dp538
S'P01130'
p539
I1
sS'P02749'
p540
I1
ssS'3ZHP'
p541
(dp542
S'Q9Y6E0'
p543
I1
sS'Q9H9S4'
p544
I1
ssS'3II6'
p545
(dp546
S'P49917'
p547
I1
sS'Q13426'
p548
I2
ssS'4JHD'
p549
(dp550
S'P10987'
p551
I2
sS'Q5NBX1'
p552
I1
ssS'4F9C'
p553
(dp554
S'Q9UBU7'
p555
I1
sS'O00311'
p556
I1
ssS'3KSE'
p557
(dp558
S'P01040'
p559
I1
sS'P07711'
p560
I1
ssS'2GRR'
p561
(dp562
S'P46060'
p563
I1
sS'P63279'
p564
I1
ssS'2HLE'
p565
(dp566
S'P52799'
p567
I1
sS'Q96L35'
p568
I1
ssS'3F1I'
p569
(dp570
S'O14964'
p571
I1
sS'Q92783'
p572
I2
ssS'1BH9'
p573
(dp574
S'Q15544'
p575
I1
sS'Q15543'
p576
I1
ssS'3F1N'
p577
(dp578
S'Q99814'
p579
I1
sS'P27540'
p580
I1
ssS'4KAX'
p581
(dp582
S'P62330'
p583
I1
sS'O43739'
p584
I1
ssS'3MQP'
p585
(dp586
S'Q13794'
p587
I1
sS'Q16548'
p588
I1
ssS'3CQC'
p589
(dp590
S'P57740'
p591
I1
sS'Q8WUM0'
p592
I1
ssS'3N9U'
p593
(dp594
S'Q8N684'
p595
I2
sS'O43809'
p596
I2
ssS'4IYP'
p597
(dp598
S'P78318'
p599
I1
sS'P67775'
p600
I1
ssS'3BN3'
p601
(dp602
S'Q9UMF0'
p603
I1
sS'P20701'
p604
I1
ssS'2RR3'
p605
(dp606
S'Q9P0L0'
p607
I1
sS'P22059'
p608
I1
ssS'4DCK'
p609
(dp610
S'Q14524'
p611
I1
sS'P62158'
p612
I1
sS'Q92913'
p613
I1
ssS'1VF6'
p614
(dp615
S'Q9JLB2'
p616
I1
sS'Q8NI35'
p617
I1
ssS'4C5E'
p618
(dp619
S'Q9VK33'
p620
I4
sS'Q8ST83'
p621
I4
ssS'4C5G'
p622
(dp623
S'Q9VK33'
p624
I1
sS'Q8ST83'
p625
I1
ssS'3F8U'
p626
(dp627
S'P30101'
p628
I1
sS'O15533'
p629
I1
ssS'1JMT'
p630
(dp631
S'P26368'
p632
I1
sS'Q01081'
p633
I1
ssS'3PZD'
p634
(dp635
S'Q9HD67'
p636
I1
sS'P70211'
p637
I1
ssS'2REX'
p638
(dp639
S'Q92730'
p640
I1
sS'O43157'
p641
I1
ssS'2FCW'
p642
(dp643
S'P01130'
p644
I1
sS'P30533'
p645
I1
ssS'4A55'
p646
(dp647
S'P42337'
p648
I1
sS'P27986'
p649
I1
ssS'3O0G'
p650
(dp651
S'Q00535'
p652
I1
sS'Q15078'
p653
I1
ssS'3AAD'
p654
(dp655
S'P21675'
p656
I1
sS'Q9Y294'
p657
I2
ssS'1ONV'
p658
(dp659
S'Q9Y5B0'
p660
I1
sS'P35269'
p661
I1
ssS'2LQC'
p662
(dp663
S'Q13936'
p664
I1
sS'P62158'
p665
I1
ssS'2OM2'
p666
(dp667
S'P63096'
p668
I1
sS'O43566'
p669
I1
ssS'3QD6'
p670
(dp671
S'P25942'
p672
I2
sS'P29965'
p673
I3
ssS'4FP9'
p674
(dp675
S'Q7Z6M4'
p676
I4
sS'Q96CB9'
p677
I4
ssS'3QVG'
p678
(dp679
S'P49916'
p680
I2
sS'Q60596'
p681
I2
ssS'2L1R'
p682
(dp683
S'P19429'
p684
I1
sS'P63316'
p685
I1
ssS'2XSZ'
p686
(dp687
S'Q9Y265'
p688
I3
sS'Q9Y230'
p689
I3
ssS'2L1C'
p690
(dp691
S'P29353'
p692
I1
sS'P05106'
p693
I1
ssS'2V8S'
p694
(dp695
S'Q14677'
p696
I1
sS'Q9UEU0'
p697
I1
ssS'1Z00'
p698
(dp699
S'Q92889'
p700
I1
sS'P07992'
p701
I1
ssS'2QME'
p702
(dp703
S'Q13153'
p704
I1
sS'P60763'
p705
I1
ssS'4FTG'
p706
(dp707
S'P60903'
p708
I2
sS'Q09666'
p709
I1
sS'P07355'
p710
I2
ssS'1NVU'
p711
(dp712
S'P01112'
p713
I2
sS'Q07889'
p714
I1
ssS'1G73'
p715
(dp716
S'Q9NR28'
p717
I1
sS'P98170'
p718
I1
ssS'1RK8'
p719
(dp720
S'P49028'
p721
I1
sS'P82804'
p722
I1
sS'Q9V535'
p723
I1
ssS'1JM7'
p724
(dp725
S'Q99728'
p726
I1
sS'P38398'
p727
I1
ssS'3N3K'
p728
(dp729
S'P40818'
p730
I1
sS'P0CG48'
p731
I1
ssS'3ZYI'
p732
(dp733
S'Q9HBW1'
p734
I1
sS'Q96CW9'
p735
I1
ssS'3T6G'
p736
(dp737
S'Q8N5H7'
p738
I1
sS'P56945'
p739
I1
ssS'4L41'
p740
(dp741
S'P00709'
p742
I2
sS'P15291'
p743
I1
ssS'3MCB'
p744
(dp745
S'Q13765'
p746
I1
sS'P20290'
p747
I1
ssS'3AXJ'
p748
(dp749
S'Q8INE1'
p750
I1
sS'Q7JVK6'
p751
I1
ssS'2PNR'
p752
(dp753
S'Q15120'
p754
I2
sS'P10515'
p755
I1
ssS'3NMZ'
p756
(dp757
S'P25054'
p758
I2
sS'Q9NR80'
p759
I2
ssS'1P27'
p760
(dp761
S'P61326'
p762
I2
sS'Q9Y5S9'
p763
I2
ssS'1OQD'
p764
(dp765
S'Q02223'
p766
I48
sS'Q9Y275'
p767
I60
ssS'1FLL'
p768
(dp769
S'P25942'
p770
I1
sS'Q13114'
p771
I1
ssS'4GMJ'
p772
(dp773
S'Q9UIV1'
p774
I1
sS'A5YKK6'
p775
I1
ssS'4GDK'
p776
(dp777
S'O94817'
p778
I2
sS'Q676U5'
p779
I2
sS'Q9H1Y0'
p780
I2
ssS'4E5Z'
p781
(dp782
S'Q92466'
p783
I1
sS'Q16531'
p784
I1
ssS'1E8O'
p785
(dp786
S'P49458'
p787
I2
sS'P37108'
p788
I2
ssS'4AJ5'
p789
(dp790
S'Q96BD8'
p791
I10
sS'Q8WVK7'
p792
I10
sS'Q8IX90'
p793
I10
ssS'2OT3'
p794
(dp795
S'Q9UJ41'
p796
I1
sS'Q9UL25'
p797
I1
ssS'3LBX'
p798
(dp799
S'P02549'
p800
I1
sS'P11277'
p801
I1
ssS'2BEC'
p802
(dp803
S'O43745'
p804
I1
sS'P19634'
p805
I1
ssS'4AXG'
p806
(dp807
S'P48598'
p808
I1
sS'Q9VMA3'
p809
I1
ssS'3GM1'
p810
(dp811
S'P49023'
p812
I2
sS'Q14289'
p813
I1
ssS'2H62'
p814
(dp815
S'P36894'
p816
I1
sS'Q13705'
p817
I1
sS'P12643'
p818
I2
ssS'3IFQ'
p819
(dp820
S'P09803'
p821
I2
sS'P14923'
p822
I2
ssS'1E8S'
p823
(dp824
S'P49458'
p825
I1
sS'P37108'
p826
I1
ssS'3FMO'
p827
(dp828
S'Q9UMR2'
p829
I1
sS'P35658'
p830
I1
ssS'2J0T'
p831
(dp832
S'P01033'
p833
I1
sS'P03956'
p834
I1
ssS'3AJB'
p835
(dp836
S'P40855'
p837
I1
sS'P56589'
p838
I1
ssS'3OJY'
p839
(dp840
S'P07360'
p841
I1
sS'P07358'
p842
I1
sS'P07357'
p843
I1
ssS'4F52'
p844
(dp845
S'Q92990'
p846
I1
sS'P62877'
p847
I1
sS'Q13616'
p848
I1
ssS'2PG1'
p849
(dp850
S'Q94524'
p851
I2
sS'Q13409'
p852
I2
sS'Q24117'
p853
I2
ssS'3FCU'
p854
(dp855
S'P08514'
p856
I1
sS'P05106'
p857
I1
ssS'3FM8'
p858
(dp859
S'O75689'
p860
I1
sS'Q9NQT8'
p861
I1
ssS'3MMY'
p862
(dp863
S'P78406'
p864
I1
sS'P52948'
p865
I1
ssS'2K8F'
p866
(dp867
S'Q09472'
p868
I1
sS'P04637'
p869
I1
ssS'2RNR'
p870
(dp871
S'P29083'
p872
I1
sS'P32780'
p873
I1
ssS'3OJM'
p874
(dp875
S'P21802'
p876
I1
sS'P05230'
p877
I1
ssS'2HV8'
p878
(dp879
S'P62491'
p880
I2
sS'O75154'
p881
I2
ssS'3BRV'
p882
(dp883
S'Q9Y6K9'
p884
I2
sS'O14920'
p885
I2
ssS'2ZU6'
p886
(dp887
S'Q53EL6'
p888
I1
sS'P60842'
p889
I2
ssS'3L4G'
p890
(dp891
S'Q9NSD9'
p892
I2
sS'Q9Y285'
p893
I2
ssS'1D2Z'
p894
(dp895
S'P22812'
p896
I1
sS'Q05652'
p897
I1
ssS'4DGL'
p898
(dp899
S'P67870'
p900
I2
sS'P68400'
p901
I2
ssS'2WVR'
p902
(dp903
S'O75496'
p904
I4
sS'Q9H211'
p905
I2
ssS'3GJX'
p906
(dp907
S'O95149'
p908
I1
sS'Q6P5F9'
p909
I1
sS'P62826'
p910
I1
ssS'2XA0'
p911
(dp912
S'Q07813'
p913
I1
sS'P10415'
p914
I1
ssS'4BRY'
p915
(dp916
S'O75496'
p917
I1
sS'D6RGH6'
p918
I1
ssS'3Q3J'
p919
(dp920
S'Q92730'
p921
I4
sS'O75051'
p922
I4
ssS'3ZWH'
p923
(dp924
S'P26447'
p925
I2
sS'P35579'
p926
I1
ssS'4M6W'
p927
(dp928
S'Q9BTP7'
p929
I1
sS'Q8IYD8'
p930
I1
ssS'2C0J'
p931
(dp932
S'O43617'
p933
I1
sS'O75865'
p934
I1
ssS'2WD5'
p935
(dp936
S'Q9CU62'
p937
I1
sS'Q9CW03'
p938
I1
ssS'2C0L'
p939
(dp940
S'P50542'
p941
I1
sS'P22307'
p942
I1
ssS'2BN5'
p943
(dp944
S'Q7JPS0'
p945
I1
sS'P17133'
p946
I1
ssS'4FZV'
p947
(dp948
S'Q7Z6M4'
p949
I1
sS'Q96CB9'
p950
I1
ssS'1FS1'
p951
(dp952
S'Q13309'
p953
I2
sS'P63208'
p954
I2
ssS'2RAW'
p955
(dp956
S'Q53HL2'
p957
I1
sS'O15392'
p958
I1
ssS'1F3U'
p959
(dp960
S'P35269'
p961
I1
sS'P13984'
p962
I1
ssS'1F3V'
p963
(dp964
S'Q12933'
p965
I1
sS'Q15628'
p966
I1
ssS'2LV6'
p967
(dp968
S'Q9H1R3'
p969
I1
sS'P62158'
p970
I1
ssS'2LXM'
p971
(dp972
S'Q9NZZ3'
p973
I1
sS'Q9NP79'
p974
I1
ssS'1MK2'
p975
(dp976
S'O95405'
p977
I2
sS'P84022'
p978
I2
ssS'4IC7'
p979
(dp980
S'Q13163'
p981
I1
sS'Q13164'
p982
I1
ssS'2NVU'
p983
(dp984
S'Q15843'
p985
I2
sS'Q13564'
p986
I1
sS'P61081'
p987
I1
sS'Q8TBC4'
p988
I1
ssS'3P4F'
p989
(dp990
S'P61964'
p991
I1
sS'Q03164'
p992
I1
sS'Q15291'
p993
I1
ssS'2F5Z'
p994
(dp995
S'P09622'
p996
I2
sS'O00330'
p997
I1
ssS'1QGR'
p998
(dp999
S'Q14974'
p1000
I1
sS'P52292'
p1001
I1
ssS'4JEG'
p1002
(dp1003
S'Q06124'
p1004
I1
sS'P02751'
p1005
I1
ssS'3B13'
p1006
(dp1007
S'Q92608'
p1008
I2
sS'P63000'
p1009
I2
ssS'1JSU'
p1010
(dp1011
S'P46527'
p1012
I1
sS'P20248'
p1013
I1
sS'P24941'
p1014
I1
ssS'1U5S'
p1015
(dp1016
S'P48059'
p1017
I1
sS'O43639'
p1018
I1
ssS'4HI8'
p1019
(dp1020
S'P48059'
p1021
I1
sS'Q13418'
p1022
I1
ssS'1H59'
p1023
(dp1024
S'P05019'
p1025
I3
sS'P24593'
p1026
I3
ssS'2P8Q'
p1027
(dp1028
S'O95149'
p1029
I1
sS'Q14974'
p1030
I1
ssS'3DXE'
p1031
(dp1032
S'P05067'
p1033
I1
sS'O00213'
p1034
I1
ssS'2LD7'
p1035
(dp1036
S'Q60520'
p1037
I1
sS'O88574'
p1038
I1
ssS'3IXS'
p1039
(dp1040
S'Q99496'
p1041
I1
sS'Q8N488'
p1042
I1
ssS'3HTU'
p1043
(dp1044
S'Q9BRG1'
p1045
I1
sS'Q96FZ7'
p1046
I1
ssS'3W8H'
p1047
(dp1048
S'O00506'
p1049
I2
sS'Q9BUL8'
p1050
I2
ssS'3KBU'
p1051
(dp1052
S'P11277'
p1053
I1
sS'P16157'
p1054
I1
ssS'1SYX'
p1055
(dp1056
S'O95400'
p1057
I1
sS'P83876'
p1058
I1
ssS'2Y7Q'
p1059
(dp1060
S'P12319'
p1061
I1
sS'P01854'
p1062
I2
ssS'2K2I'
p1063
(dp1064
S'P41208'
p1065
I1
sS'A8K8P3'
p1066
I1
ssS'3M7F'
p1067
(dp1068
S'P46935'
p1069
I1
sS'Q60760'
p1070
I1
ssS'1Y8Q'
p1071
(dp1072
S'Q9UBE0'
p1073
I1
sS'Q9UBT2'
p1074
I1
ssS'2V53'
p1075
(dp1076
S'P02461'
p1077
I3
sS'P09486'
p1078
I1
ssS'1Y8X'
p1079
(dp1080
S'Q8TBC4'
p1081
I1
sS'P61081'
p1082
I1
ssS'4C4P'
p1083
(dp1084
S'P62491'
p1085
I1
sS'Q7L804'
p1086
I1
ssS'4DKD'
p1087
(dp1088
S'Q6ZMJ4'
p1089
I2
sS'P07333'
p1090
I1
ssS'1Y8O'
p1091
(dp1092
S'Q15120'
p1093
I2
sS'P10515'
p1094
I2
ssS'1Z2C'
p1095
(dp1096
S'P08134'
p1097
I2
sS'O08808'
p1098
I2
ssS'4DRI'
p1099
(dp1100
S'Q13451'
p1101
I1
sS'P42345'
p1102
I1
ssS'2QRV'
p1103
(dp1104
S'Q9Y6K1'
p1105
I2
sS'Q9UJW3'
p1106
I2
ssS'3EG5'
p1107
(dp1108
S'O08808'
p1109
I2
sS'P60766'
p1110
I2
ssS'3G33'
p1111
(dp1112
S'P11802'
p1113
I2
sS'P30281'
p1114
I2
ssS'4CFE'
p1115
(dp1116
S'Q9Y478'
p1117
I1
sS'P54619'
p1118
I1
sS'P54646'
p1119
I1
ssS'2IWG'
p1120
(dp1121
S'P19474'
p1122
I2
sS'P01857'
p1123
I2
ssS'3KMU'
p1124
(dp1125
S'Q9NVD7'
p1126
I1
sS'Q13418'
p1127
I1
ssS'2VRW'
p1128
(dp1129
S'P27870'
p1130
I1
sS'P63000'
p1131
I1
ssS'3NVQ'
p1132
(dp1133
S'O75326'
p1134
I2
sS'O60486'
p1135
I2
ssS'2H3N'
p1136
(dp1137
S'P12018'
p1138
I2
sS'P15814'
p1139
I2
ssS'2FYL'
p1140
(dp1141
S'Q07954'
p1142
I1
sS'P30533'
p1143
I1
ssS'4KIT'
p1144
(dp1145
S'Q6P2Q9'
p1146
I1
sS'O75643'
p1147
I1
ssS'1I7W'
p1148
(dp1149
S'Q02248'
p1150
I2
sS'P09803'
p1151
I2
ssS'2L2L'
p1152
(dp1153
S'Q9UBB5'
p1154
I1
sS'Q86YP4'
p1155
I1
ssS'3OG6'
p1156
(dp1157
S'Q8IU54'
p1158
I1
sS'Q8IU57'
p1159
I1
ssS'2BSK'
p1160
(dp1161
S'P62072'
p1162
I3
sS'Q9Y5J7'
p1163
I3
ssS'1UKL'
p1164
(dp1165
S'P70168'
p1166
I1
sS'Q12772'
p1167
I2
ssS'1EV2'
p1168
(dp1169
S'P09038'
p1170
I4
sS'P21802'
p1171
I4
ssS'3RPG'
p1172
(dp1173
S'P35226'
p1174
I1
sS'P61077'
p1175
I1
sS'Q99496'
p1176
I1
ssS'2YLE'
p1177
(dp1178
S'Q9NZ56'
p1179
I1
sS'Q08AE8'
p1180
I1
ssS'3E5A'
p1181
(dp1182
S'O14965'
p1183
I1
sS'Q9ULW0'
p1184
I1
ssS'2LE9'
p1185
(dp1186
S'Q99584'
p1187
I2
sS'Q15109'
p1188
I2
ssS'1U6G'
p1189
(dp1190
S'Q86VP6'
p1191
I1
sS'P62877'
p1192
I1
sS'Q13616'
p1193
I1
ssS'3TCX'
p1194
(dp1195
S'P05362'
p1196
I1
sS'P20701'
p1197
I1
ssS'3T5G'
p1198
(dp1199
S'O43924'
p1200
I1
sS'Q15382'
p1201
I1
ssS'1JEY'
p1202
(dp1203
S'P12956'
p1204
I1
sS'P13010'
p1205
I1
ssS'4GH7'
p1206
(dp1207
S'P02751'
p1208
I1
sS'P80188'
p1209
I1
ssS'4EZM'
p1210
(dp1211
S'P06734'
p1212
I2
sS'P01854'
p1213
I2
ssS'1M2Z'
p1214
(dp1215
S'P04150'
p1216
I2
sS'Q15596'
p1217
I2
ssS'2YBF'
p1218
(dp1219
S'P63146'
p1220
I1
sS'Q9NS91'
p1221
I1
ssS'2E9W'
p1222
(dp1223
S'P21583'
p1224
I2
sS'P10721'
p1225
I2
ssS'4A63'
p1226
(dp1227
S'Q13625'
p1228
I1
sS'O15350'
p1229
I1
ssS'3DOE'
p1230
(dp1231
S'Q9Y2Y0'
p1232
I1
sS'P36404'
p1233
I1
ssS'4A69'
p1234
(dp1235
S'O15379'
p1236
I1
sS'Q9Y618'
p1237
I1
ssS'1YX5'
p1238
(dp1239
S'P55036'
p1240
I1
sS'P0CG48'
p1241
I1
ssS'3EXE'
p1242
(dp1243
S'P08559'
p1244
I2
sS'P11177'
p1245
I2
ssS'3U88'
p1246
(dp1247
S'Q03164'
p1248
I1
sS'O00255'
p1249
I1
sS'O75475'
p1250
I1
ssS'3P71'
p1251
(dp1252
S'P67775'
p1253
I1
sS'Q9UIC8'
p1254
I1
ssS'3VHX'
p1255
(dp1256
S'Q02241'
p1257
I2
sS'P62331'
p1258
I2
ssS'3BH7'
p1259
(dp1260
S'Q9WUL7'
p1261
I1
sS'O75695'
p1262
I1
ssS'4F6U'
p1263
(dp1264
S'P24863'
p1265
I1
sS'P49336'
p1266
I1
ssS'2WG3'
p1267
(dp1268
S'Q96QV1'
p1269
I1
sS'O43323'
p1270
I1
ssS'1JKG'
p1271
(dp1272
S'Q9UBU9'
p1273
I1
sS'Q9UKK6'
p1274
I1
ssS'2GH0'
p1275
(dp1276
S'O60609'
p1277
I2
sS'Q5T4W7'
p1278
I2
ssS'2B4S'
p1279
(dp1280
S'P06213'
p1281
I2
sS'P18031'
p1282
I2
ssS'1OEY'
p1283
(dp1284
S'P19878'
p1285
I1
sS'Q15080'
p1286
I1
ssS'4FDD'
p1287
(dp1288
S'Q92973'
p1289
I1
sS'P35637'
p1290
I1
ssS'4HXI'
p1291
(dp1292
S'Q13618'
p1293
I1
sS'Q9UH77'
p1294
I1
ssS'1J2J'
p1295
(dp1296
S'Q9UJY5'
p1297
I1
sS'Q8BSL7'
p1298
I1
ssS'4DXR'
p1299
(dp1300
S'Q9UH99'
p1301
I3
sS'Q8NF91'
p1302
I3
ssS'1Q68'
p1303
(dp1304
S'P01730'
p1305
I1
sS'P06239'
p1306
I1
ssS'3KNB'
p1307
(dp1308
S'Q8WZ42'
p1309
I1
sS'O75147'
p1310
I1
ssS'4DXA'
p1311
(dp1312
S'O00522'
p1313
I1
sS'P61224'
p1314
I1
ssS'2KZT'
p1315
(dp1316
S'Q61823'
p1317
I1
sS'Q53EL6'
p1318
I1
ssS'1N1J'
p1319
(dp1320
S'Q13952'
p1321
I1
sS'P25208'
p1322
I1
ssS'3YGS'
p1323
(dp1324
S'P55211'
p1325
I1
sS'O14727'
p1326
I1
ssS'4DX8'
p1327
(dp1328
S'O14713'
p1329
I1
sS'O00522'
p1330
I1
ssS'3R9A'
p1331
(dp1332
S'P50542'
p1333
I2
sS'P21549'
p1334
I2
ssS'2OKR'
p1335
(dp1336
S'P49137'
p1337
I1
sS'Q16539'
p1338
I1
ssS'2FDB'
p1339
(dp1340
S'P21802'
p1341
I1
sS'P55075'
p1342
I1
ssS'3ABD'
p1343
(dp1344
S'Q9UI95'
p1345
I1
sS'O60673'
p1346
I1
ssS'3MN7'
p1347
(dp1348
S'P10987'
p1349
I1
sS'Q9U1K1'
p1350
I1
ssS'4G1M'
p1351
(dp1352
S'P05106'
p1353
I1
sS'P06756'
p1354
I1
ssS'2B3G'
p1355
(dp1356
S'P27694'
p1357
I3
sS'P04637'
p1358
I3
ssS'3GB8'
p1359
(dp1360
S'O95149'
p1361
I1
sS'O14980'
p1362
I1
ssS'2H0D'
p1363
(dp1364
S'P35226'
p1365
I1
sS'Q99496'
p1366
I1
ssS'4GOJ'
p1367
(dp1368
S'Q13432'
p1369
I1
sS'Q9WUL7'
p1370
I1
ssS'4GGF'
p1371
(dp1372
S'P05109'
p1373
I2
sS'P06702'
p1374
I2
ssS'1E96'
p1375
(dp1376
S'P19878'
p1377
I1
sS'P63000'
p1378
I1
ssS'1SHY'
p1379
(dp1380
S'P14210'
p1381
I1
sS'P08581'
p1382
I1
ssS'2A1T'
p1383
(dp1384
S'P11310'
p1385
I4
sS'P13804'
p1386
I1
sS'P38117'
p1387
I1
ssS'1VYH'
p1388
(dp1389
S'P63005'
p1390
I2
sS'P68402'
p1391
I2
ssS'3TQ7'
p1392
(dp1393
S'Q9UPY8'
p1394
I1
sS'Q14203'
p1395
I2
sS'Q15691'
p1396
I1
ssS'3BLH'
p1397
(dp1398
S'O60563'
p1399
I1
sS'P50750'
p1400
I1
ssS'2D10'
p1401
(dp1402
S'O14745'
p1403
I1
sS'P26043'
p1404
I1
ssS'1KCG'
p1405
(dp1406
S'P26718'
p1407
I2
sS'Q9BZM4'
p1408
I1
ssS'2JXC'
p1409
(dp1410
S'P42566'
p1411
I1
sS'Q8WXE9'
p1412
I1
ssS'2YHO'
p1413
(dp1414
S'P51668'
p1415
I1
sS'Q8WY64'
p1416
I1
ssS'3KUD'
p1417
(dp1418
S'P01112'
p1419
I1
sS'P04049'
p1420
I1
ssS'4BD2'
p1421
(dp1422
S'Q07812'
p1423
I2
sS'P55957'
p1424
I2
ssS'3L9K'
p1425
(dp1426
S'Q24246'
p1427
I1
sS'Q7KMS3'
p1428
I1
ssS'4C02'
p1429
(dp1430
S'Q04771'
p1431
I1
sS'P68106'
p1432
I1
ssS'1FYH'
p1433
(dp1434
S'P01579'
p1435
I1
sS'P15260'
p1436
I1
ssS'2POP'
p1437
(dp1438
S'Q15750'
p1439
I2
sS'P98170'
p1440
I2
ssS'4BJ3'
p1441
(dp1442
S'P17301'
p1443
I2
sS'Q96A83'
p1444
I3
ssS'2C5D'
p1445
(dp1446
S'P30530'
p1447
I2
sS'Q14393'
p1448
I2
ssS'1MZW'
p1449
(dp1450
S'O43172'
p1451
I1
sS'O43447'
p1452
I1
ssS'3FEY'
p1453
(dp1454
S'Q09161'
p1455
I1
sS'P52298'
p1456
I1
sS'P52292'
p1457
I1
ssS'2AZE'
p1458
(dp1459
S'P06400'
p1460
I1
sS'Q01094'
p1461
I1
sS'Q14186'
p1462
I1
ssS'2K5B'
p1463
(dp1464
S'P07900'
p1465
I1
sS'Q16543'
p1466
I1
ssS'1YOV'
p1467
(dp1468
S'Q13564'
p1469
I1
sS'Q8TBC4'
p1470
I1
ssS'1KFU'
p1471
(dp1472
S'P17655'
p1473
I1
sS'P04632'
p1474
I1
ssS'2BO9'
p1475
(dp1476
S'Q9UI42'
p1477
I2
sS'Q9BS40'
p1478
I2
ssS'3MXN'
p1479
(dp1480
S'Q96E14'
p1481
I1
sS'Q9H9A7'
p1482
I1
ssS'1KZY'
p1483
(dp1484
S'Q12888'
p1485
I2
sS'P04637'
p1486
I2
ssS'1B34'
p1487
(dp1488
S'P62316'
p1489
I1
sS'P62314'
p1490
I1
ssS'2HEY'
p1491
(dp1492
S'P43489'
p1493
I3
sS'P43488'
p1494
I3
ssS'3MA2'
p1495
(dp1496
S'P50281'
p1497
I1
sS'P01033'
p1498
I1
ssS'2IO0'
p1499
(dp1500
S'Q9HC62'
p1501
I1
sS'P61956'
p1502
I1
ssS'2AFF'
p1503
(dp1504
S'P46013'
p1505
I1
sS'Q9BYG3'
p1506
I1
ssS'1DOW'
p1507
(dp1508
S'P26231'
p1509
I1
sS'Q02248'
p1510
I1
ssS'2GL7'
p1511
(dp1512
S'P35222'
p1513
I1
sS'Q9NQB0'
p1514
I1
sS'O00512'
p1515
I1
ssS'3P5J'
p1516
(dp1517
S'Q80ZV0'
p1518
I1
sS'Q9CWY8'
p1519
I1
sS'Q9CQ18'
p1520
I1
ssS'1M4U'
p1521
(dp1522
S'Q13253'
p1523
I2
sS'P18075'
p1524
I2
ssS'2W96'
p1525
(dp1526
S'P11802'
p1527
I1
sS'P24385'
p1528
I1
ssS'2LE8'
p1529
(dp1530
S'Q9H211'
p1531
I1
sS'Q14566'
p1532
I1
ssS'3MJG'
p1533
(dp1534
S'P01127'
p1535
I2
sS'P09619'
p1536
I2
ssS'3VVW'
p1537
(dp1538
S'Q13137'
p1539
I1
sS'Q9BXW4'
p1540
I1
ssS'1ZY3'
p1541
(dp1542
S'P55957'
p1543
I1
sS'Q92843'
p1544
I1
ssS'1GO4'
p1545
(dp1546
S'Q9Y6D9'
p1547
I4
sS'Q13257'
p1548
I4
ssS'3NQU'
p1549
(dp1550
S'P49450'
p1551
I2
sS'P62805'
p1552
I2
ssS'3MJH'
p1553
(dp1554
S'Q15075'
p1555
I1
sS'P20339'
p1556
I1
ssS'3A98'
p1557
(dp1558
S'Q92556'
p1559
I1
sS'Q92608'
p1560
I1
ssS'3RO2'
p1561
(dp1562
S'Q14980'
p1563
I1
sS'Q8VDU0'
p1564
I1
ssS'3QB4'
p1565
(dp1566
S'P36894'
p1567
I1
sS'P43026'
p1568
I1
ssS'3KJ0'
p1569
(dp1570
S'O43521'
p1571
I1
sS'Q07820'
p1572
I1
ssS'2BYK'
p1573
(dp1574
S'Q9V444'
p1575
I1
sS'Q9V452'
p1576
I1
ssS'3K6G'
p1577
(dp1578
S'Q15554'
p1579
I1
sS'Q9NYB0'
p1580
I1
ssS'3Q4F'
p1581
(dp1582
S'Q13426'
p1583
I2
sS'Q9H9Q4'
p1584
I2
ssS'4BSR'
p1585
(dp1586
S'O75473'
p1587
I2
sS'Q2MKA7'
p1588
I2
ssS'4AUQ'
p1589
(dp1590
S'P62837'
p1591
I2
sS'Q96CA5'
p1592
I2
sS'P0CG48'
p1593
I2
ssS'3K6S'
p1594
(dp1595
S'P20702'
p1596
I1
sS'P05107'
p1597
I1
ssS'2NPT'
p1598
(dp1599
S'Q13163'
p1600
I1
sS'Q9Y2U5'
p1601
I1
ssS'3QBV'
p1602
(dp1603
S'Q15811'
p1604
I1
sS'P60953'
p1605
I1
ssS'3N1F'
p1606
(dp1607
S'Q4KMG0'
p1608
I1
sS'Q14623'
p1609
I1
ssS'3A1J'
p1610
(dp1611
S'Q99638'
p1612
I1
sS'O60921'
p1613
I1
sS'O60671'
p1614
I1
ssS'2Q4G'
p1615
(dp1616
S'P07998'
p1617
I2
sS'P13489'
p1618
I2
ssS'1CXZ'
p1619
(dp1620
S'P61586'
p1621
I1
sS'Q16512'
p1622
I1
ssS'1WYW'
p1623
(dp1624
S'P63165'
p1625
I1
sS'Q13569'
p1626
I1
ssS'2LEH'
p1627
(dp1628
S'Q16637'
p1629
I1
sS'O14893'
p1630
I1
ssS'4L23'
p1631
(dp1632
S'P42336'
p1633
I1
sS'P27986'
p1634
I1
ssS'2I32'
p1635
(dp1636
S'P54198'
p1637
I1
sS'Q9Y294'
p1638
I1
ssS'2C35'
p1639
(dp1640
S'O15514'
p1641
I1
sS'P62487'
p1642
I1
ssS'1YK0'
p1643
(dp1644
S'P01160'
p1645
I1
sS'P17342'
p1646
I2
ssS'3KXC'
p1647
(dp1648
S'O43617'
p1649
I1
sS'Q86SZ2'
p1650
I1
ssS'1WLP'
p1651
(dp1652
S'P13498'
p1653
I1
sS'P14598'
p1654
I1
ssS'4DNC'
p1655
(dp1656
S'Q68DK7'
p1657
I1
sS'Q9H7Z6'
p1658
I1
ssS'4AF3'
p1659
(dp1660
S'Q96GD4'
p1661
I1
sS'Q9NQS7'
p1662
I1
ssS'4B7Y'
p1663
(dp1664
S'Q68DK7'
p1665
I2
sS'Q9HCI7'
p1666
I2
ssS'3LDQ'
p1667
(dp1668
S'Q99933'
p1669
I1
sS'P11142'
p1670
I1
ssS'4KC3'
p1671
(dp1672
S'O95760'
p1673
I1
sS'Q01638'
p1674
I1
ssS'1DU3'
p1675
(dp1676
S'P50591'
p1677
I3
sS'O14763'
p1678
I3
ssS'2ODE'
p1679
(dp1680
S'P57771'
p1681
I1
sS'P08754'
p1682
I1
ssS'3S4W'
p1683
(dp1684
S'Q8K368'
p1685
I1
sS'Q80V62'
p1686
I1
ssS'2ODG'
p1687
(dp1688
S'O75531'
p1689
I2
sS'P50402'
p1690
I1
ssS'2BKR'
p1691
(dp1692
S'Q15843'
p1693
I1
sS'Q96LD8'
p1694
I1
ssS'3PJA'
p1695
(dp1696
S'Q15631'
p1697
I6
sS'Q99598'
p1698
I2
ssS'2IY0'
p1699
(dp1700
S'P46060'
p1701
I1
sS'P63165'
p1702
I1
sS'Q9P0U3'
p1703
I1
ssS'1REW'
p1704
(dp1705
S'P36894'
p1706
I2
sS'P12643'
p1707
I2
ssS'3KQ4'
p1708
(dp1709
S'P27352'
p1710
I1
sS'O60494'
p1711
I1
ssS'1WKW'
p1712
(dp1713
S'Q13541'
p1714
I1
sS'P06730'
p1715
I1
ssS'2IYB'
p1716
(dp1717
S'Q8N8S7'
p1718
I1
sS'Q9UGI8'
p1719
I1
ssS'2JJS'
p1720
(dp1721
S'P78324'
p1722
I1
sS'Q08722'
p1723
I1
ssS'3V96'
p1724
(dp1725
S'P01033'
p1726
I1
sS'P09238'
p1727
I1
ssS'2XZE'
p1728
(dp1729
S'O95630'
p1730
I1
sS'Q9Y3E7'
p1731
I1
ssS'1TX4'
p1732
(dp1733
S'Q07960'
p1734
I1
sS'P61586'
p1735
I1
ssS'1K4U'
p1736
(dp1737
S'P19878'
p1738
I1
sS'P14598'
p1739
I1
ssS'3M0A'
p1740
(dp1741
S'Q12933'
p1742
I3
sS'Q13489'
p1743
I1
ssS'3M0D'
p1744
(dp1745
S'Q12933'
p1746
I2
sS'Q13489'
p1747
I1
sS'Q13077'
p1748
I1
ssS'2HKQ'
p1749
(dp1750
S'Q14203'
p1751
I2
sS'Q15691'
p1752
I2
ssS'3NC1'
p1753
(dp1754
S'Q6P5F9'
p1755
I1
sS'P62826'
p1756
I1
ssS'3IKM'
p1757
(dp1758
S'Q9UHN1'
p1759
I2
sS'P54098'
p1760
I1
ssS'3CKI'
p1761
(dp1762
S'P35625'
p1763
I1
sS'P78536'
p1764
I1
ssS'4C0D'
p1765
(dp1766
S'O75175'
p1767
I1
sS'Q9NZN8'
p1768
I1
sS'A5YKK6'
p1769
I1
ssS'2LP0'
p1770
(dp1771
S'P31274'
p1772
I1
sS'O75496'
p1773
I1
ssS'1SGH'
p1774
(dp1775
S'O14745'
p1776
I1
sS'P26038'
p1777
I1
ssS'3UVJ'
p1778
(dp1779
S'Q02153'
p1780
I1
sS'Q02108'
p1781
I1
ssS'1DKF'
p1782
(dp1783
S'P10276'
p1784
I1
sS'P28700'
p1785
I1
ssS'1LI1'
p1786
(dp1787
S'P02462'
p1788
I4
sS'P08572'
p1789
I2
ssS'2C2V'
p1790
(dp1791
S'Q13404'
p1792
I2
sS'Q9WUD1'
p1793
I2
sS'P61088'
p1794
I2
ssS'3SF4'
p1795
(dp1796
S'Q1MX18'
p1797
I1
sS'P81274'
p1798
I1
ssS'2XQN'
p1799
(dp1800
S'Q9Y615'
p1801
I1
sS'Q8N8S7'
p1802
I1
sS'Q9UGI8'
p1803
I1
ssS'1X79'
p1804
(dp1805
S'Q15276'
p1806
I2
sS'Q9UJY5'
p1807
I1
ssS'1OO0'
p1808
(dp1809
S'P49028'
p1810
I1
sS'Q9V535'
p1811
I1
ssS'4KT1'
p1812
(dp1813
S'Q9BXB1'
p1814
I1
sS'Q2MKA7'
p1815
I1
ssS'3GZN'
p1816
(dp1817
S'Q15843'
p1818
I1
sS'Q13564'
p1819
I1
sS'Q8TBC4'
p1820
I1
ssS'3HYM'
p1821
(dp1822
S'Q8NHZ8'
p1823
I1
sS'Q13042'
p1824
I1
ssS'3E0J'
p1825
(dp1826
S'Q15054'
p1827
I1
sS'P49005'
p1828
I1
ssS'2GY7'
p1829
(dp1830
S'O15123'
p1831
I1
sS'Q02763'
p1832
I1
ssS'2UYZ'
p1833
(dp1834
S'P63165'
p1835
I1
sS'P63280'
p1836
I1
ssS'2OCF'
p1837
(dp1838
S'P02751'
p1839
I2
sS'P03372'
p1840
I2
ssS'3QFA'
p1841
(dp1842
S'P10599'
p1843
I2
sS'Q16881'
p1844
I2
ssS'1JDH'
p1845
(dp1846
S'P35222'
p1847
I1
sS'Q9NQB0'
p1848
I1
ssS'3TBL'
p1849
(dp1850
S'P12004'
p1851
I3
sS'P62979'
p1852
I2
ssS'1I4D'
p1853
(dp1854
S'P53365'
p1855
I2
sS'P63000'
p1856
I1
ssS'3BBP'
p1857
(dp1858
S'Q8IWJ2'
p1859
I2
sS'P20340'
p1860
I2
ssS'4A5W'
p1861
(dp1862
S'P13671'
p1863
I1
sS'P01031'
p1864
I1
ssS'3BEG'
p1865
(dp1866
S'Q96SB4'
p1867
I1
sS'Q07955'
p1868
I1
ssS'2QFA'
p1869
(dp1870
S'Q9NQS7'
p1871
I1
sS'Q53HL2'
p1872
I1
sS'O15392'
p1873
I1
ssS'1FG9'
p1874
(dp1875
S'P01579'
p1876
I2
sS'P15260'
p1877
I3
ssS'2X1W'
p1878
(dp1879
S'P49767'
p1880
I2
sS'P35968'
p1881
I2
ssS'4ISO'
p1882
(dp1883
S'Q9Y5Y6'
p1884
I1
sS'O43278'
p1885
I1
ssS'4BEH'
p1886
(dp1887
S'P05386'
p1888
I1
sS'P05387'
p1889
I1
ssS'1DEV'
p1890
(dp1891
S'Q15796'
p1892
I1
sS'O95405'
p1893
I1
ssS'4I6L'
p1894
(dp1895
S'Q96FW1'
p1896
I1
sS'P0CG48'
p1897
I1
ssS'3KDF'
p1898
(dp1899
S'P35244'
p1900
I2
sS'P15927'
p1901
I2
ssS'3V2A'
p1902
(dp1903
S'P15692'
p1904
I2
sS'P35968'
p1905
I2
ssS'4DBG'
p1906
(dp1907
S'Q9BYM8'
p1908
I1
sS'Q96EP0'
p1909
I1
ssS'4FJV'
p1910
(dp1911
S'Q96DC9'
p1912
I1
sS'P0CG48'
p1913
I1
ssS'3HA6'
p1914
(dp1915
S'O14965'
p1916
I2
sS'Q9ULW0'
p1917
I2
ssS'3K9O'
p1918
(dp1919
S'P61086'
p1920
I1
sS'P0CG48'
p1921
I1
ssS'3QQ8'
p1922
(dp1923
S'Q9UNN5'
p1924
I1
sS'P55072'
p1925
I1
ssS'1XQS'
p1926
(dp1927
S'P08107'
p1928
I1
sS'Q9NZL4'
p1929
I1
ssS'1MR1'
p1930
(dp1931
S'Q13485'
p1932
I1
sS'P12755'
p1933
I1
ssS'3J5Y'
p1934
(dp1935
S'P15170'
p1936
I1
sS'P62495'
p1937
I1
ssS'2H4M'
p1938
(dp1939
S'P09651'
p1940
I2
sS'Q92973'
p1941
I2
ssS'4CDK'
p1942
(dp1943
S'Q2MKA7'
p1944
I1
sS'Q5SSZ7'
p1945
I1
ssS'4DPG'
p1946
(dp1947
S'Q15046'
p1948
I2
sS'Q13155'
p1949
I1
ssS'3MOP'
p1950
(dp1951
S'Q9NWZ3'
p1952
I4
sS'O43187'
p1953
I4
sS'Q99836'
p1954
I6
ssS'4J2L'
p1955
(dp1956
S'P54253'
p1957
I1
sS'Q96RK0'
p1958
I1
ssS'4IZ5'
p1959
(dp1960
S'Q15121'
p1961
I1
sS'P28482'
p1962
I1
ssS'3A4U'
p1963
(dp1964
S'Q8NI22'
p1965
I1
sS'P49257'
p1966
I1
ssS'2X11'
p1967
(dp1968
S'P29317'
p1969
I1
sS'P52803'
p1970
I1
ssS'2KYG'
p1971
(dp1972
S'Q06455'
p1973
I1
sS'P13861'
p1974
I2
ssS'1J1D'
p1975
(dp1976
S'P45379'
p1977
I1
sS'P63316'
p1978
I1
sS'P19429'
p1979
I1
ssS'4LHX'
p1980
(dp1981
S'Q96QF0'
p1982
I2
sS'P61006'
p1983
I1
ssS'2VPB'
p1984
(dp1985
S'Q9Y3Y4'
p1986
I1
sS'O00512'
p1987
I1
ssS'3G43'
p1988
(dp1989
S'Q13936'
p1990
I2
sS'P62158'
p1991
I4
ss.